; Function Attrs: mustprogress uwtable
define void @_ZNK32pxrInternal_v0_24__pxrReserved__12UsdSkelCache16GetSkinningQueryERKNS_7UsdPrimE(ptr dead_on_unwind noalias writable sret(%"class.pxrInternal_v0_24__pxrReserved__::UsdSkelSkinningQuery") align 8 %0, ptr nocapture noundef nonnull readonly align 8 dereferenceable(16) %1, ptr noundef nonnull align 8 dereferenceable(32) %2) local_unnamed_addr #0 align 2 personality ptr @__gxx_personality_v0 {
  %4 = alloca %"struct.pxrInternal_v0_24__pxrReserved__::UsdSkel_CacheImpl::ReadScope", align 8
  %5 = load ptr, ptr %1, align 8
  call void @_ZN32pxrInternal_v0_24__pxrReserved__17UsdSkel_CacheImpl9ReadScopeC1EPS0_(ptr noundef nonnull align 8 dereferenceable(40) %4, ptr noundef %5)
  invoke void @_ZNK32pxrInternal_v0_24__pxrReserved__17UsdSkel_CacheImpl9ReadScope16GetSkinningQueryERKNS_7UsdPrimE(ptr dead_on_unwind writable sret(%"class.pxrInternal_v0_24__pxrReserved__::UsdSkelSkinningQuery") align 8 %0, ptr noundef nonnull align 8 dereferenceable(40) %4, ptr noundef nonnull align 8 dereferenceable(32) %2)
          to label %6 unwind label %13

6:                                                ; preds = %3
  %7 = getelementptr inbounds nuw i8, ptr %4, i64 8
  %8 = load ptr, ptr %7, align 8
  %.not.i.i = icmp eq ptr %8, null
  br i1 %.not.i.i, label %_ZN32pxrInternal_v0_24__pxrReserved__17UsdSkel_CacheImpl9ReadScopeD2Ev.exit, label %9

9:                                                ; preds = %6
  invoke void @_ZN3tbb6detail2r17releaseERNS0_2d116queuing_rw_mutex11scoped_lockE(ptr noundef nonnull align 8 dereferenceable(27) %7)
          to label %_ZN32pxrInternal_v0_24__pxrReserved__17UsdSkel_CacheImpl9ReadScopeD2Ev.exit unwind label %10

10:                                               ; preds = %9
  %11 = landingpad { ptr, i32 }
          catch ptr null
  %12 = extractvalue { ptr, i32 } %11, 0
  call void @__clang_call_terminate(ptr %12) #17
  unreachable

_ZN32pxrInternal_v0_24__pxrReserved__17UsdSkel_CacheImpl9ReadScopeD2Ev.exit: ; preds = %6, %9
  ret void

13:                                               ; preds = %3
  %14 = landingpad { ptr, i32 }
          cleanup
  call void @_ZN32pxrInternal_v0_24__pxrReserved__17UsdSkel_CacheImpl9ReadScopeD2Ev(ptr noundef nonnull align 8 dereferenceable(40) %4) #18
  resume { ptr, i32 } %14
}